target datalayout = "e-m:e-p270:32:32-p271:32:32-p272:64:64-i64:64-i128:128-f80:128-n8:16:32:64-S128"
target triple = "x86_64-pc-linux-gnu"

@hf_cigi_version = internal global i32 0, align 4
@hf_cigi4_start_of_frame_db_number = internal global i32 0, align 4
@hf_cigi4_start_of_frame_minor_version = internal global i32 0, align 4
@hf_cigi4_start_of_frame_flags = internal global i32 0, align 4
@hf_cigi4_start_of_frame_ig_mode = internal global i32 0, align 4
@hf_cigi4_start_of_frame_timestamp_valid = internal global i32 0, align 4
@hf_cigi4_start_of_frame_earth_reference_model = internal global i32 0, align 4
@hf_cigi4_start_of_frame_ig_frame_number = internal global i32 0, align 4
@hf_cigi4_start_of_frame_timestamp = internal global i32 0, align 4
@hf_cigi4_start_of_frame_last_host_frame_number = internal global i32 0, align 4
@hf_cigi4_start_of_frame_ig_condition_flags = internal global i32 0, align 4
@hf_cigi4_start_of_frame_condition_overframing = internal global i32 0, align 4
@hf_cigi4_start_of_frame_condition_paging = internal global i32 0, align 4
@hf_cigi4_start_of_frame_condition_excessive_variable_length_data = internal global i32 0, align 4
@ett_cigi4_start_of_frame_flags = internal global i32 0, align 4
@ett_cigi4_start_of_frame_ig_condition_flags = internal global i32 0, align 4
@cigi_byte_order = internal global i32 0, align 4

; Function Attrs: null_pointer_is_valid sspstrong uwtable
define internal i32 @cigi4_add_start_of_frame(ptr noundef %0, ptr noundef %1, ptr noundef %2, ptr noundef %3) #0 {
  %5 = alloca ptr, align 8
  %6 = alloca ptr, align 8
  %7 = alloca ptr, align 8
  %8 = alloca ptr, align 8
  %9 = alloca ptr, align 8
  %10 = alloca ptr, align 8
  %11 = alloca i32, align 4
  store ptr %0, ptr %5, align 8
  store ptr %1, ptr %6, align 8
  store ptr %2, ptr %7, align 8
  store ptr %3, ptr %8, align 8
  call void @llvm.lifetime.start.p0(i64 8, ptr %9) #5
  call void @llvm.lifetime.start.p0(i64 8, ptr %10) #5
  call void @llvm.lifetime.start.p0(i64 4, ptr %11) #5
  store i32 0, ptr %11, align 4
  %12 = load ptr, ptr %7, align 8
  %13 = load i32, ptr @hf_cigi_version, align 4
  %14 = load ptr, ptr %5, align 8
  %15 = load i32, ptr %11, align 4
  %16 = load i32, ptr @cigi_byte_order, align 4
  %17 = call ptr @proto_tree_add_item(ptr noundef %12, i32 noundef %13, ptr noundef %14, i32 noundef %15, i32 noundef 1, i32 noundef %16)
  %18 = load i32, ptr %11, align 4
  %19 = add i32 %18, 1
  store i32 %19, ptr %11, align 4
  %20 = load ptr, ptr %7, align 8
  %21 = load i32, ptr @hf_cigi4_start_of_frame_db_number, align 4
  %22 = load ptr, ptr %5, align 8
  %23 = load i32, ptr %11, align 4
  %24 = load i32, ptr @cigi_byte_order, align 4
  %25 = call ptr @proto_tree_add_item(ptr noundef %20, i32 noundef %21, ptr noundef %22, i32 noundef %23, i32 noundef 1, i32 noundef %24)
  %26 = load i32, ptr %11, align 4
  %27 = add i32 %26, 2
  store i32 %27, ptr %11, align 4
  %28 = load ptr, ptr %7, align 8
  %29 = load i32, ptr @hf_cigi4_start_of_frame_flags, align 4
  %30 = load ptr, ptr %5, align 8
  %31 = load i32, ptr %11, align 4
  %32 = load i32, ptr @cigi_byte_order, align 4
  %33 = call ptr @proto_tree_add_item(ptr noundef %28, i32 noundef %29, ptr noundef %30, i32 noundef %31, i32 noundef 1, i32 noundef %32)
  store ptr %33, ptr %10, align 8
  %34 = load ptr, ptr %10, align 8
  %35 = load i32, ptr @ett_cigi4_start_of_frame_flags, align 4
  %36 = call ptr @proto_item_add_subtree(ptr noundef %34, i32 noundef %35)
  store ptr %36, ptr %9, align 8
  %37 = load ptr, ptr %9, align 8
  %38 = load i32, ptr @hf_cigi4_start_of_frame_ig_mode, align 4
  %39 = load ptr, ptr %5, align 8
  %40 = load i32, ptr %11, align 4
  %41 = load i32, ptr @cigi_byte_order, align 4
  %42 = call ptr @proto_tree_add_item(ptr noundef %37, i32 noundef %38, ptr noundef %39, i32 noundef %40, i32 noundef 1, i32 noundef %41)
  %43 = load ptr, ptr %9, align 8
  %44 = load i32, ptr @hf_cigi4_start_of_frame_timestamp_valid, align 4
  %45 = load ptr, ptr %5, align 8
  %46 = load i32, ptr %11, align 4
  %47 = load i32, ptr @cigi_byte_order, align 4
  %48 = call ptr @proto_tree_add_item(ptr noundef %43, i32 noundef %44, ptr noundef %45, i32 noundef %46, i32 noundef 1, i32 noundef %47)
  %49 = load ptr, ptr %9, align 8
  %50 = load i32, ptr @hf_cigi4_start_of_frame_earth_reference_model, align 4
  %51 = load ptr, ptr %5, align 8
  %52 = load i32, ptr %11, align 4
  %53 = load i32, ptr @cigi_byte_order, align 4
  %54 = call ptr @proto_tree_add_item(ptr noundef %49, i32 noundef %50, ptr noundef %51, i32 noundef %52, i32 noundef 1, i32 noundef %53)
  %55 = load ptr, ptr %9, align 8
  %56 = load i32, ptr @hf_cigi4_start_of_frame_minor_version, align 4
  %57 = load ptr, ptr %5, align 8
  %58 = load i32, ptr %11, align 4
  %59 = load i32, ptr @cigi_byte_order, align 4
  %60 = call ptr @proto_tree_add_item(ptr noundef %55, i32 noundef %56, ptr noundef %57, i32 noundef %58, i32 noundef 1, i32 noundef %59)
  %61 = load i32, ptr %11, align 4
  %62 = add i32 %61, 1
  store i32 %62, ptr %11, align 4
  %63 = load ptr, ptr %7, align 8
  %64 = load i32, ptr @hf_cigi4_start_of_frame_ig_frame_number, align 4
  %65 = load ptr, ptr %5, align 8
  %66 = load i32, ptr %11, align 4
  %67 = load i32, ptr @cigi_byte_order, align 4
  %68 = call ptr @proto_tree_add_item(ptr noundef %63, i32 noundef %64, ptr noundef %65, i32 noundef %66, i32 noundef 4, i32 noundef %67)
  %69 = load i32, ptr %11, align 4
  %70 = add i32 %69, 4
  store i32 %70, ptr %11, align 4
  %71 = load ptr, ptr %7, align 8
  %72 = load i32, ptr @hf_cigi4_start_of_frame_timestamp, align 4
  %73 = load ptr, ptr %5, align 8
  %74 = load i32, ptr %11, align 4
  %75 = load i32, ptr @cigi_byte_order, align 4
  %76 = call ptr @proto_tree_add_item(ptr noundef %71, i32 noundef %72, ptr noundef %73, i32 noundef %74, i32 noundef 4, i32 noundef %75)
  %77 = load i32, ptr %11, align 4
  %78 = add i32 %77, 4
  store i32 %78, ptr %11, align 4
  %79 = load ptr, ptr %7, align 8
  %80 = load i32, ptr @hf_cigi4_start_of_frame_last_host_frame_number, align 4
  %81 = load ptr, ptr %5, align 8
  %82 = load i32, ptr %11, align 4
  %83 = load i32, ptr @cigi_byte_order, align 4
  %84 = call ptr @proto_tree_add_item(ptr noundef %79, i32 noundef %80, ptr noundef %81, i32 noundef %82, i32 noundef 4, i32 noundef %83)
  %85 = load i32, ptr %11, align 4
  %86 = add i32 %85, 4
  store i32 %86, ptr %11, align 4
  %87 = load ptr, ptr %7, align 8
  %88 = load i32, ptr @hf_cigi4_start_of_frame_ig_condition_flags, align 4
  %89 = load ptr, ptr %5, align 8
  %90 = load i32, ptr %11, align 4
  %91 = load i32, ptr @cigi_byte_order, align 4
  %92 = call ptr @proto_tree_add_item(ptr noundef %87, i32 noundef %88, ptr noundef %89, i32 noundef %90, i32 noundef 1, i32 noundef %91)
  store ptr %92, ptr %10, align 8
  %93 = load ptr, ptr %10, align 8
  %94 = load i32, ptr @ett_cigi4_start_of_frame_ig_condition_flags, align 4
  %95 = call ptr @proto_item_add_subtree(ptr noundef %93, i32 noundef %94)
  store ptr %95, ptr %9, align 8
  %96 = load ptr, ptr %9, align 8
  %97 = load i32, ptr @hf_cigi4_start_of_frame_condition_overframing, align 4
  %98 = load ptr, ptr %5, align 8
  %99 = load i32, ptr %11, align 4
  %100 = load i32, ptr @cigi_byte_order, align 4
  %101 = call ptr @proto_tree_add_item(ptr noundef %96, i32 noundef %97, ptr noundef %98, i32 noundef %99, i32 noundef 1, i32 noundef %100)
  %102 = load ptr, ptr %9, align 8
  %103 = load i32, ptr @hf_cigi4_start_of_frame_condition_paging, align 4
  %104 = load ptr, ptr %5, align 8
  %105 = load i32, ptr %11, align 4
  %106 = load i32, ptr @cigi_byte_order, align 4
  %107 = call ptr @proto_tree_add_item(ptr noundef %102, i32 noundef %103, ptr noundef %104, i32 noundef %105, i32 noundef 1, i32 noundef %106)
  %108 = load ptr, ptr %9, align 8
  %109 = load i32, ptr @hf_cigi4_start_of_frame_condition_excessive_variable_length_data, align 4
  %110 = load ptr, ptr %5, align 8
  %111 = load i32, ptr %11, align 4
  %112 = load i32, ptr @cigi_byte_order, align 4
  %113 = call ptr @proto_tree_add_item(ptr noundef %108, i32 noundef %109, ptr noundef %110, i32 noundef %111, i32 noundef 1, i32 noundef %112)
  %114 = load i32, ptr %11, align 4
  %115 = add i32 %114, 4
  store i32 %115, ptr %11, align 4
  %116 = load i32, ptr %11, align 4
  call void @llvm.lifetime.end.p0(i64 4, ptr %11) #5
  call void @llvm.lifetime.end.p0(i64 8, ptr %10) #5
  call void @llvm.lifetime.end.p0(i64 8, ptr %9) #5
  ret i32 %116
}