; Function Attrs: null_pointer_is_valid sspstrong uwtable
define internal noundef i32 @cigi4_add_start_of_frame(ptr noundef %0, ptr readnone captures(none) %1, ptr noundef %2, ptr readnone captures(none) %3) #0 {
  %5 = load i32, ptr @hf_cigi_version, align 4
  %.b63 = load i1, ptr @cigi_byte_order, align 4
  %6 = select i1 %.b63, i32 -2147483648, i32 0
  %7 = tail call ptr @proto_tree_add_item(ptr noundef %2, i32 noundef %5, ptr noundef %0, i32 noundef 0, i32 noundef 1, i32 noundef %6)
  %8 = load i32, ptr @hf_cigi4_start_of_frame_db_number, align 4
  %.b62 = load i1, ptr @cigi_byte_order, align 4
  %9 = select i1 %.b62, i32 -2147483648, i32 0
  %10 = tail call ptr @proto_tree_add_item(ptr noundef %2, i32 noundef %8, ptr noundef %0, i32 noundef 1, i32 noundef 1, i32 noundef %9)
  %11 = load i32, ptr @hf_cigi4_start_of_frame_flags, align 4
  %.b61 = load i1, ptr @cigi_byte_order, align 4
  %12 = select i1 %.b61, i32 -2147483648, i32 0
  %13 = tail call ptr @proto_tree_add_item(ptr noundef %2, i32 noundef %11, ptr noundef %0, i32 noundef 3, i32 noundef 1, i32 noundef %12)
  %14 = load i32, ptr @ett_cigi4_start_of_frame_flags, align 4
  %15 = tail call ptr @proto_item_add_subtree(ptr noundef %13, i32 noundef %14)
  %16 = load i32, ptr @hf_cigi4_start_of_frame_ig_mode, align 4
  %.b60 = load i1, ptr @cigi_byte_order, align 4
  %17 = select i1 %.b60, i32 -2147483648, i32 0
  %18 = tail call ptr @proto_tree_add_item(ptr noundef %15, i32 noundef %16, ptr noundef %0, i32 noundef 3, i32 noundef 1, i32 noundef %17)
  %19 = load i32, ptr @hf_cigi4_start_of_frame_timestamp_valid, align 4
  %.b59 = load i1, ptr @cigi_byte_order, align 4
  %20 = select i1 %.b59, i32 -2147483648, i32 0
  %21 = tail call ptr @proto_tree_add_item(ptr noundef %15, i32 noundef %19, ptr noundef %0, i32 noundef 3, i32 noundef 1, i32 noundef %20)
  %22 = load i32, ptr @hf_cigi4_start_of_frame_earth_reference_model, align 4
  %.b58 = load i1, ptr @cigi_byte_order, align 4
  %23 = select i1 %.b58, i32 -2147483648, i32 0
  %24 = tail call ptr @proto_tree_add_item(ptr noundef %15, i32 noundef %22, ptr noundef %0, i32 noundef 3, i32 noundef 1, i32 noundef %23)
  %25 = load i32, ptr @hf_cigi4_start_of_frame_minor_version, align 4
  %.b57 = load i1, ptr @cigi_byte_order, align 4
  %26 = select i1 %.b57, i32 -2147483648, i32 0
  %27 = tail call ptr @proto_tree_add_item(ptr noundef %15, i32 noundef %25, ptr noundef %0, i32 noundef 3, i32 noundef 1, i32 noundef %26)
  %28 = load i32, ptr @hf_cigi4_start_of_frame_ig_frame_number, align 4
  %.b56 = load i1, ptr @cigi_byte_order, align 4
  %29 = select i1 %.b56, i32 -2147483648, i32 0
  %30 = tail call ptr @proto_tree_add_item(ptr noundef %2, i32 noundef %28, ptr noundef %0, i32 noundef 4, i32 noundef 4, i32 noundef %29)
  %31 = load i32, ptr @hf_cigi4_start_of_frame_timestamp, align 4
  %.b55 = load i1, ptr @cigi_byte_order, align 4
  %32 = select i1 %.b55, i32 -2147483648, i32 0
  %33 = tail call ptr @proto_tree_add_item(ptr noundef %2, i32 noundef %31, ptr noundef %0, i32 noundef 8, i32 noundef 4, i32 noundef %32)
  %34 = load i32, ptr @hf_cigi4_start_of_frame_last_host_frame_number, align 4
  %.b54 = load i1, ptr @cigi_byte_order, align 4
  %35 = select i1 %.b54, i32 -2147483648, i32 0
  %36 = tail call ptr @proto_tree_add_item(ptr noundef %2, i32 noundef %34, ptr noundef %0, i32 noundef 12, i32 noundef 4, i32 noundef %35)
  %37 = load i32, ptr @hf_cigi4_start_of_frame_ig_condition_flags, align 4
  %.b53 = load i1, ptr @cigi_byte_order, align 4
  %38 = select i1 %.b53, i32 -2147483648, i32 0
  %39 = tail call ptr @proto_tree_add_item(ptr noundef %2, i32 noundef %37, ptr noundef %0, i32 noundef 16, i32 noundef 1, i32 noundef %38)
  %40 = load i32, ptr @ett_cigi4_start_of_frame_ig_condition_flags, align 4
  %41 = tail call ptr @proto_item_add_subtree(ptr noundef %39, i32 noundef %40)
  %42 = load i32, ptr @hf_cigi4_start_of_frame_condition_overframing, align 4
  %.b52 = load i1, ptr @cigi_byte_order, align 4
  %43 = select i1 %.b52, i32 -2147483648, i32 0
  %44 = tail call ptr @proto_tree_add_item(ptr noundef %41, i32 noundef %42, ptr noundef %0, i32 noundef 16, i32 noundef 1, i32 noundef %43)
  %45 = load i32, ptr @hf_cigi4_start_of_frame_condition_paging, align 4
  %.b51 = load i1, ptr @cigi_byte_order, align 4
  %46 = select i1 %.b51, i32 -2147483648, i32 0
  %47 = tail call ptr @proto_tree_add_item(ptr noundef %41, i32 noundef %45, ptr noundef %0, i32 noundef 16, i32 noundef 1, i32 noundef %46)
  %48 = load i32, ptr @hf_cigi4_start_of_frame_condition_excessive_variable_length_data, align 4
  %.b = load i1, ptr @cigi_byte_order, align 4
  %49 = select i1 %.b, i32 -2147483648, i32 0
  %50 = tail call ptr @proto_tree_add_item(ptr noundef %41, i32 noundef %48, ptr noundef %0, i32 noundef 16, i32 noundef 1, i32 noundef %49)
  ret i32 20
}